Certificate:
    Data:
        Version: 3 (0x2)
        Serial Number: 2 (0x2)
        Signature Algorithm: sha1WithRSAEncryption
        Issuer: C=US, ST=CA, L=SanFrancisco, O=Fort-Funston, CN=Fort-Funston CA/emailAddress=me@myhost.mydomain
        Validity
            Not Before: Jun 23 22:46:21 2015 GMT
            Not After : Jun 20 22:46:21 2025 GMT
        Subject: C=US, ST=CA, L=SanFrancisco, O=Fort-Funston, CN=ns-m/emailAddress=me@myhost.mydomain
        Subject Public Key Info:
            Public Key Algorithm: rsaEncryption
            RSA Public Key: (1024 bit)
                Modulus (1024 bit):
                    00:dc:a8:d7:3d:6a:a7:cd:4c:db:d5:36:59:56:85:
                    8f:8a:11:4f:09:61:96:f6:b4:17:28:8e:43:03:20:
                    ce:0d:4e:2b:93:64:15:ec:91:8d:85:0c:89:58:98:
                    6b:8e:c8:d0:06:69:79:0b:a3:57:77:68:14:be:fd:
                    e8:44:54:ab:de:67:69:34:a0:9c:ff:56:db:c4:bd:
                    b2:a8:01:e9:c9:ba:47:d1:9d:e7:54:f1:0c:63:a6:
                    4a:0f:e1:5f:cf:6a:db:37:99:dc:9c:81:a7:b1:e5:
                    d6:b4:34:51:27:5a:bb:f5:7f:13:84:80:a2:b7:1c:
                    26:36:bb:6b:8e:9d:8f:00:a9
                Exponent: 65537 (0x10001)
        X509v3 extensions:
            X509v3 Basic Constraints: 
                CA:FALSE
            Netscape Comment: 
                Easy-RSA Generated Certificate
            X509v3 Subject Key Identifier: 
                F7:E1:2A:00:2B:F5:60:B6:CF:34:0F:44:2D:58:86:36:EE:F2:A1:5E
            X509v3 Authority Key Identifier: 
                keyid:84:5B:E0:1E:FF:EE:16:E8:EB:C6:7F:2C:86:DD:81:7D:43:E1:5B:5B
                DirName:/C=US/ST=CA/L=SanFrancisco/O=Fort-Funston/CN=Fort-Funston CA/emailAddress=me@myhost.mydomain
                serial:B3:8A:8E:26:DC:E7:37:BC

            X509v3 Extended Key Usage: 
                TLS Web Client Authentication
            X509v3 Key Usage: 
                Digital Signature
    Signature Algorithm: sha1WithRSAEncryption
        87:ac:0c:a1:fa:bf:17:c2:72:4b:64:e3:7c:47:25:7a:69:aa:
        e5:a7:cd:d9:73:7c:2d:8e:e6:3a:45:ae:d3:f2:89:d7:f1:fb:
        f7:08:3c:27:42:bd:d6:2b:6c:61:fb:78:40:2a:f5:9e:77:55:
        76:9c:ef:81:09:e7:87:89:b6:d3:ca:86:7b:7e:50:7c:ec:7f:
        3b:37:d7:ca:7f:5c:e9:35:e5:0e:b2:f4:8a:df:4e:d2:ea:e1:
        fd:8c:3a:88:d0:bd:da:d7:cd:fe:f8:ff:fc:ff:fd:6f:d5:29:
        cc:59:9b:9a:34:3c:73:62:6b:75:a6:c1:7c:db:69:08:8f:63:
        28:16
-----BEGIN CERTIFICATE-----
MIIDtDCCAx2gAwIBAgIBAjANBgkqhkiG9w0BAQUFADCBhTELMAkGA1UEBhMCVVMx
CzAJBgNVBAgTAkNBMRUwEwYDVQQHEwxTYW5GcmFuY2lzY28xFTATBgNVBAoTDEZv
cnQtRnVuc3RvbjEYMBYGA1UEAxMPRm9ydC1GdW5zdG9uIENBMSEwHwYJKoZIhvcN
AQkBFhJtZUBteWhvc3QubXlkb21haW4wHhcNMTUwNjIzMjI0NjIxWhcNMjUwNjIw
MjI0NjIxWjB6MQswCQYDVQQGEwJVUzELMAkGA1UECBMCQ0ExFTATBgNVBAcTDFNh
bkZyYW5jaXNjbzEVMBMGA1UEChMMRm9ydC1GdW5zdG9uMQ0wCwYDVQQDEwRucy1t
MSEwHwYJKoZIhvcNAQkBFhJtZUBteWhvc3QubXlkb21haW4wgZ8wDQYJKoZIhvcN
AQEBBQADgY0AMIGJAoGBANyo1z1qp81M29U2WVaFj4oRTwlhlva0FyiOQwMgzg1O
K5NkFeyRjYUMiViYa47I0AZpeQujV3doFL796ERUq95naTSgnP9W28S9sqgB6cm6
R9Gd51TxDGOmSg/hX89q2zeZ3JyBp7Hl1rQ0USdau/V/E4SAorccJja7a46djwCp
AgMBAAGjggE8MIIBODAJBgNVHRMEAjAAMC0GCWCGSAGG+EIBDQQgFh5FYXN5LVJT
QSBHZW5lcmF0ZWQgQ2VydGlmaWNhdGUwHQYDVR0OBBYEFPfhKgAr9WC2zzQPRC1Y
hjbu8qFeMIG6BgNVHSMEgbIwga+AFIRb4B7/7hbo68Z/LIbdgX1D4VtboYGLpIGI
MIGFMQswCQYDVQQGEwJVUzELMAkGA1UECBMCQ0ExFTATBgNVBAcTDFNhbkZyYW5j
aXNjbzEVMBMGA1UEChMMRm9ydC1GdW5zdG9uMRgwFgYDVQQDEw9Gb3J0LUZ1bnN0
b24gQ0ExITAfBgkqhkiG9w0BCQEWEm1lQG15aG9zdC5teWRvbWFpboIJALOKjibc
5ze8MBMGA1UdJQQMMAoGCCsGAQUFBwMCMAsGA1UdDwQEAwIHgDANBgkqhkiG9w0B
AQUFAAOBgQCHrAyh+r8XwnJLZON8RyV6aarlp83Zc3wtjuY6Ra7T8onX8fv3CDwn
Qr3WK2xh+3hAKvWed1V2nO+BCeeHibbTyoZ7flB87H87N9fKf1zpNeUOsvSK307S
6uH9jDqI0L3a183++P/8//1v1SnMWZuaNDxzYmt1psF822kIj2MoFg==
-----END CERTIFICATE-----
